target datalayout = "e-m:e-p270:32:32-p271:32:32-p272:64:64-i64:64-i128:128-f80:128-n8:16:32:64-S128"
target triple = "x86_64-pc-linux-gnu"

%"class.glslang::TIntermTyped" = type { %class.TIntermNode, %"class.glslang::TType" }
%class.TIntermNode = type { ptr, %"struct.glslang::TSourceLoc" }
%"struct.glslang::TSourceLoc" = type { ptr, i32, i32, i32 }
%"class.glslang::TType" = type { ptr, i32, [4 x i8], %"class.glslang::TQualifier", ptr, %union.anon, ptr, ptr, %"struct.glslang::TSampler", ptr, ptr }
%"class.glslang::TQualifier" = type <{ ptr, i64, i8, [3 x i8], i32, i32, i64, i64, i8, i8, i8, i8, i8, [3 x i8], i32, i8, i8, i8, i8, i32, ptr, i8, i8, [6 x i8] }>
%union.anon = type { ptr }
%"struct.glslang::TSampler" = type { i32 }
%"class.glslang::TIntermOperator" = type { %"class.glslang::TIntermTyped", i32, i32 }

; Function Attrs: mustprogress nounwind uwtable
define linkonce_odr noundef i32 @_ZNK7glslang15TIntermOperator5getOpEv(ptr noundef nonnull align 8 dereferenceable(192) %0) #0 comdat align 2 {
  %2 = alloca ptr, align 8
  store ptr %0, ptr %2, align 8
  %3 = load ptr, ptr %2, align 8
  %4 = getelementptr inbounds %"class.glslang::TIntermOperator", ptr %3, i32 0, i32 1
  %5 = load i32, ptr %4, align 8
  ret i32 %5
}

; Function Attrs: mustprogress nounwind uwtable
define noundef zeroext i1 @_ZNK7glslang13TIntermediate25isSpecializationOperationERKNS_15TIntermOperatorE(ptr noundef nonnull align 8 dereferenceable(2024) %0, ptr noundef nonnull align 8 dereferenceable(192) %1) #0 align 2 {
  %3 = alloca i1, align 1
  %4 = alloca ptr, align 8
  %5 = alloca ptr, align 8
  %6 = alloca ptr, align 8
  store ptr %0, ptr %4, align 8
  store ptr %1, ptr %5, align 8
  %7 = load ptr, ptr %5, align 8
  %8 = load ptr, ptr %7, align 8
  %9 = getelementptr inbounds ptr, ptr %8, i64 30
  %10 = load ptr, ptr %9, align 8
  %11 = call noundef nonnull align 8 dereferenceable(152) ptr %10(ptr noundef nonnull align 8 dereferenceable(184) %7)
  %12 = load ptr, ptr %11, align 8
  %13 = getelementptr inbounds ptr, ptr %12, i64 38
  %14 = load ptr, ptr %13, align 8
  %15 = call noundef zeroext i1 %14(ptr noundef nonnull align 8 dereferenceable(152) %11)
  br i1 %15, label %16, label %21

16:                                               ; preds = %2
  %17 = load ptr, ptr %5, align 8
  %18 = call noundef i32 @_ZNK7glslang15TIntermOperator5getOpEv(ptr noundef nonnull align 8 dereferenceable(192) %17)
  switch i32 %18, label %20 [
    i32 182, label %19
    i32 183, label %19
    i32 184, label %19
    i32 185, label %19
    i32 139, label %19
    i32 149, label %19
    i32 128, label %19
    i32 138, label %19
    i32 129, label %19
    i32 148, label %19
  ]

19:                                               ; preds = %16, %16, %16, %16, %16, %16, %16, %16, %16, %16
  store i1 true, ptr %3, align 1
  br label %64

20:                                               ; preds = %16
  store i1 false, ptr %3, align 1
  br label %64

21:                                               ; preds = %2
  %22 = load ptr, ptr %5, align 8
  %23 = load ptr, ptr %22, align 8
  %24 = getelementptr inbounds ptr, ptr %23, i64 20
  %25 = load ptr, ptr %24, align 8
  %26 = call noundef ptr %25(ptr noundef nonnull align 8 dereferenceable(32) %22)
  store ptr %26, ptr %6, align 8
  %27 = load ptr, ptr %6, align 8
  %28 = icmp ne ptr %27, null
  br i1 %28, label %29, label %59

29:                                               ; preds = %21
  %30 = load ptr, ptr %6, align 8
  %31 = load ptr, ptr %30, align 8
  %32 = getelementptr inbounds ptr, ptr %31, i64 50
  %33 = load ptr, ptr %32, align 8
  %34 = call noundef ptr %33(ptr noundef nonnull align 8 dereferenceable(208) %30)
  %35 = load ptr, ptr %34, align 8
  %36 = getelementptr inbounds ptr, ptr %35, i64 30
  %37 = load ptr, ptr %36, align 8
  %38 = call noundef nonnull align 8 dereferenceable(152) ptr %37(ptr noundef nonnull align 8 dereferenceable(184) %34)
  %39 = load ptr, ptr %38, align 8
  %40 = getelementptr inbounds ptr, ptr %39, i64 38
  %41 = load ptr, ptr %40, align 8
  %42 = call noundef zeroext i1 %41(ptr noundef nonnull align 8 dereferenceable(152) %38)
  br i1 %42, label %57, label %43

43:                                               ; preds = %29
  %44 = load ptr, ptr %6, align 8
  %45 = load ptr, ptr %44, align 8
  %46 = getelementptr inbounds ptr, ptr %45, i64 51
  %47 = load ptr, ptr %46, align 8
  %48 = call noundef ptr %47(ptr noundef nonnull align 8 dereferenceable(208) %44)
  %49 = load ptr, ptr %48, align 8
  %50 = getelementptr inbounds ptr, ptr %49, i64 30
  %51 = load ptr, ptr %50, align 8
  %52 = call noundef nonnull align 8 dereferenceable(152) ptr %51(ptr noundef nonnull align 8 dereferenceable(184) %48)
  %53 = load ptr, ptr %52, align 8
  %54 = getelementptr inbounds ptr, ptr %53, i64 38
  %55 = load ptr, ptr %54, align 8
  %56 = call noundef zeroext i1 %55(ptr noundef nonnull align 8 dereferenceable(152) %52)
  br i1 %56, label %57, label %58

57:                                               ; preds = %43, %29
  store i1 false, ptr %3, align 1
  br label %64

58:                                               ; preds = %43
  br label %59

59:                                               ; preds = %58, %21
  %60 = load ptr, ptr %5, align 8
  %61 = call noundef i32 @_ZNK7glslang15TIntermOperator5getOpEv(ptr noundef nonnull align 8 dereferenceable(192) %60)
  switch i32 %61, label %63 [
    i32 182, label %62
    i32 183, label %62
    i32 184, label %62
    i32 185, label %62
    i32 18, label %62
    i32 20, label %62
    i32 22, label %62
    i32 24, label %62
    i32 19, label %62
    i32 21, label %62
    i32 23, label %62
    i32 25, label %62
    i32 29, label %62
    i32 31, label %62
    i32 33, label %62
    i32 35, label %62
    i32 30, label %62
    i32 32, label %62
    i32 34, label %62
    i32 36, label %62
    i32 40, label %62
    i32 41, label %62
    i32 42, label %62
    i32 43, label %62
    i32 44, label %62
    i32 45, label %62
    i32 46, label %62
    i32 60, label %62
    i32 61, label %62
    i32 62, label %62
    i32 63, label %62
    i32 64, label %62
    i32 65, label %62
    i32 66, label %62
    i32 80, label %62
    i32 81, label %62
    i32 82, label %62
    i32 83, label %62
    i32 84, label %62
    i32 85, label %62
    i32 86, label %62
    i32 100, label %62
    i32 101, label %62
    i32 102, label %62
    i32 103, label %62
    i32 104, label %62
    i32 105, label %62
    i32 106, label %62
    i32 47, label %62
    i32 48, label %62
    i32 49, label %62
    i32 50, label %62
    i32 51, label %62
    i32 52, label %62
    i32 53, label %62
    i32 67, label %62
    i32 68, label %62
    i32 69, label %62
    i32 70, label %62
    i32 71, label %62
    i32 72, label %62
    i32 73, label %62
    i32 87, label %62
    i32 88, label %62
    i32 89, label %62
    i32 90, label %62
    i32 91, label %62
    i32 92, label %62
    i32 93, label %62
    i32 107, label %62
    i32 108, label %62
    i32 109, label %62
    i32 110, label %62
    i32 111, label %62
    i32 112, label %62
    i32 113, label %62
    i32 8, label %62
    i32 9, label %62
    i32 11, label %62
    i32 156, label %62
    i32 157, label %62
    i32 158, label %62
    i32 175, label %62
    i32 159, label %62
    i32 160, label %62
    i32 161, label %62
    i32 162, label %62
    i32 163, label %62
    i32 164, label %62
    i32 165, label %62
    i32 179, label %62
    i32 180, label %62
    i32 181, label %62
    i32 166, label %62
    i32 167, label %62
    i32 170, label %62
    i32 171, label %62
    i32 172, label %62
    i32 173, label %62
  ]

62:                                               ; preds = %59, %59, %59, %59, %59, %59, %59, %59, %59, %59, %59, %59, %59, %59, %59, %59, %59, %59, %59, %59, %59, %59, %59, %59, %59, %59, %59, %59, %59, %59, %59, %59, %59, %59, %59, %59, %59, %59, %59, %59, %59, %59, %59, %59, %59, %59, %59, %59, %59, %59, %59, %59, %59, %59, %59, %59, %59, %59, %59, %59, %59, %59, %59, %59, %59, %59, %59, %59, %59, %59, %59, %59, %59, %59, %59, %59, %59, %59, %59, %59, %59, %59, %59, %59, %59, %59, %59, %59, %59, %59, %59, %59, %59, %59, %59, %59, %59, %59, %59
  store i1 true, ptr %3, align 1
  br label %64

63:                                               ; preds = %59
  store i1 false, ptr %3, align 1
  br label %64

64:                                               ; preds = %63, %62, %57, %20, %19
  %65 = load i1, ptr %3, align 1
  ret i1 %65
}