; Function Attrs: mustprogress nounwind uwtable
define noundef zeroext i1 @_ZNK7glslang13TIntermediate25isSpecializationOperationERKNS_15TIntermOperatorE(ptr nocapture nonnull readnone align 8 %0, ptr noundef nonnull align 8 dereferenceable(192) %1) local_unnamed_addr #0 align 2 {
  %3 = load ptr, ptr %1, align 8
  %4 = getelementptr inbounds i8, ptr %3, i64 240
  %5 = load ptr, ptr %4, align 8
  %6 = tail call noundef nonnull align 8 dereferenceable(152) ptr %5(ptr noundef nonnull align 8 dereferenceable(184) %1) #17
  %7 = load ptr, ptr %6, align 8
  %8 = getelementptr inbounds i8, ptr %7, i64 304
  %9 = load ptr, ptr %8, align 8
  %10 = tail call noundef zeroext i1 %9(ptr noundef nonnull align 8 dereferenceable(152) %6) #17
  br i1 %10, label %11, label %15

11:                                               ; preds = %2
  %12 = getelementptr inbounds i8, ptr %1, i64 184
  %13 = load i32, ptr %12, align 8
  %switch.tableidx = add i32 %13, -128
  %14 = icmp ult i32 %switch.tableidx, 58
  br i1 %14, label %switch.lookup, label %50

15:                                               ; preds = %2
  %16 = load ptr, ptr %1, align 8
  %17 = getelementptr inbounds i8, ptr %16, i64 160
  %18 = load ptr, ptr %17, align 8
  %19 = tail call noundef ptr %18(ptr noundef nonnull align 8 dereferenceable(32) %1) #17
  %.not = icmp eq ptr %19, null
  br i1 %.not, label %46, label %20

20:                                               ; preds = %15
  %21 = load ptr, ptr %19, align 8
  %22 = getelementptr inbounds i8, ptr %21, i64 400
  %23 = load ptr, ptr %22, align 8
  %24 = tail call noundef ptr %23(ptr noundef nonnull align 8 dereferenceable(208) %19) #17
  %25 = load ptr, ptr %24, align 8
  %26 = getelementptr inbounds i8, ptr %25, i64 240
  %27 = load ptr, ptr %26, align 8
  %28 = tail call noundef nonnull align 8 dereferenceable(152) ptr %27(ptr noundef nonnull align 8 dereferenceable(184) %24) #17
  %29 = load ptr, ptr %28, align 8
  %30 = getelementptr inbounds i8, ptr %29, i64 304
  %31 = load ptr, ptr %30, align 8
  %32 = tail call noundef zeroext i1 %31(ptr noundef nonnull align 8 dereferenceable(152) %28) #17
  br i1 %32, label %50, label %33

33:                                               ; preds = %20
  %34 = load ptr, ptr %19, align 8
  %35 = getelementptr inbounds i8, ptr %34, i64 408
  %36 = load ptr, ptr %35, align 8
  %37 = tail call noundef ptr %36(ptr noundef nonnull align 8 dereferenceable(208) %19) #17
  %38 = load ptr, ptr %37, align 8
  %39 = getelementptr inbounds i8, ptr %38, i64 240
  %40 = load ptr, ptr %39, align 8
  %41 = tail call noundef nonnull align 8 dereferenceable(152) ptr %40(ptr noundef nonnull align 8 dereferenceable(184) %37) #17
  %42 = load ptr, ptr %41, align 8
  %43 = getelementptr inbounds i8, ptr %42, i64 304
  %44 = load ptr, ptr %43, align 8
  %45 = tail call noundef zeroext i1 %44(ptr noundef nonnull align 8 dereferenceable(152) %41) #17
  br i1 %45, label %50, label %46

46:                                               ; preds = %33, %15
  %47 = getelementptr inbounds i8, ptr %1, i64 184
  %48 = load i32, ptr %47, align 8
  switch i32 %48, label %49 [
    i32 182, label %50
    i32 183, label %50
    i32 184, label %50
    i32 185, label %50
    i32 18, label %50
    i32 20, label %50
    i32 22, label %50
    i32 24, label %50
    i32 19, label %50
    i32 21, label %50
    i32 23, label %50
    i32 25, label %50
    i32 29, label %50
    i32 31, label %50
    i32 33, label %50
    i32 35, label %50
    i32 30, label %50
    i32 32, label %50
    i32 34, label %50
    i32 36, label %50
    i32 40, label %50
    i32 41, label %50
    i32 42, label %50
    i32 43, label %50
    i32 44, label %50
    i32 45, label %50
    i32 46, label %50
    i32 60, label %50
    i32 61, label %50
    i32 62, label %50
    i32 63, label %50
    i32 64, label %50
    i32 65, label %50
    i32 66, label %50
    i32 80, label %50
    i32 81, label %50
    i32 82, label %50
    i32 83, label %50
    i32 84, label %50
    i32 85, label %50
    i32 86, label %50
    i32 100, label %50
    i32 101, label %50
    i32 102, label %50
    i32 103, label %50
    i32 104, label %50
    i32 105, label %50
    i32 106, label %50
    i32 47, label %50
    i32 48, label %50
    i32 49, label %50
    i32 50, label %50
    i32 51, label %50
    i32 52, label %50
    i32 53, label %50
    i32 67, label %50
    i32 68, label %50
    i32 69, label %50
    i32 70, label %50
    i32 71, label %50
    i32 72, label %50
    i32 73, label %50
    i32 87, label %50
    i32 88, label %50
    i32 89, label %50
    i32 90, label %50
    i32 91, label %50
    i32 92, label %50
    i32 93, label %50
    i32 107, label %50
    i32 108, label %50
    i32 109, label %50
    i32 110, label %50
    i32 111, label %50
    i32 112, label %50
    i32 113, label %50
    i32 8, label %50
    i32 9, label %50
    i32 11, label %50
    i32 156, label %50
    i32 157, label %50
    i32 158, label %50
    i32 175, label %50
    i32 159, label %50
    i32 160, label %50
    i32 161, label %50
    i32 162, label %50
    i32 163, label %50
    i32 164, label %50
    i32 165, label %50
    i32 179, label %50
    i32 180, label %50
    i32 181, label %50
    i32 166, label %50
    i32 167, label %50
    i32 170, label %50
    i32 171, label %50
    i32 172, label %50
    i32 173, label %50
  ]

49:                                               ; preds = %46
  br label %50

switch.lookup:                                    ; preds = %11
  %switch.cast = zext nneg i32 %switch.tableidx to i58
  %switch.downshift = lshr i58 -18014398506333181, %switch.cast
  %switch.masked = trunc i58 %switch.downshift to i1
  br label %50

50:                                               ; preds = %11, %switch.lookup, %46, %46, %46, %46, %46, %46, %46, %46, %46, %46, %46, %46, %46, %46, %46, %46, %46, %46, %46, %46, %46, %46, %46, %46, %46, %46, %46, %46, %46, %46, %46, %46, %46, %46, %46, %46, %46, %46, %46, %46, %46, %46, %46, %46, %46, %46, %46, %46, %46, %46, %46, %46, %46, %46, %46, %46, %46, %46, %46, %46, %46, %46, %46, %46, %46, %46, %46, %46, %46, %46, %46, %46, %46, %46, %46, %46, %46, %46, %46, %46, %46, %46, %46, %46, %46, %46, %46, %46, %46, %46, %46, %46, %46, %46, %46, %46, %46, %46, %46, %20, %33, %49
  %.0 = phi i1 [ false, %49 ], [ false, %33 ], [ false, %20 ], [ true, %46 ], [ true, %46 ], [ true, %46 ], [ true, %46 ], [ true, %46 ], [ true, %46 ], [ true, %46 ], [ true, %46 ], [ true, %46 ], [ true, %46 ], [ true, %46 ], [ true, %46 ], [ true, %46 ], [ true, %46 ], [ true, %46 ], [ true, %46 ], [ true, %46 ], [ true, %46 ], [ true, %46 ], [ true, %46 ], [ true, %46 ], [ true, %46 ], [ true, %46 ], [ true, %46 ], [ true, %46 ], [ true, %46 ], [ true, %46 ], [ true, %46 ], [ true, %46 ], [ true, %46 ], [ true, %46 ], [ true, %46 ], [ true, %46 ], [ true, %46 ], [ true, %46 ], [ true, %46 ], [ true, %46 ], [ true, %46 ], [ true, %46 ], [ true, %46 ], [ true, %46 ], [ true, %46 ], [ true, %46 ], [ true, %46 ], [ true, %46 ], [ true, %46 ], [ true, %46 ], [ true, %46 ], [ true, %46 ], [ true, %46 ], [ true, %46 ], [ true, %46 ], [ true, %46 ], [ true, %46 ], [ true, %46 ], [ true, %46 ], [ true, %46 ], [ true, %46 ], [ true, %46 ], [ true, %46 ], [ true, %46 ], [ true, %46 ], [ true, %46 ], [ true, %46 ], [ true, %46 ], [ true, %46 ], [ true, %46 ], [ true, %46 ], [ true, %46 ], [ true, %46 ], [ true, %46 ], [ true, %46 ], [ true, %46 ], [ true, %46 ], [ true, %46 ], [ true, %46 ], [ true, %46 ], [ true, %46 ], [ true, %46 ], [ true, %46 ], [ true, %46 ], [ true, %46 ], [ true, %46 ], [ true, %46 ], [ true, %46 ], [ true, %46 ], [ true, %46 ], [ true, %46 ], [ true, %46 ], [ true, %46 ], [ true, %46 ], [ true, %46 ], [ true, %46 ], [ true, %46 ], [ true, %46 ], [ true, %46 ], [ true, %46 ], [ true, %46 ], [ true, %46 ], [ %switch.masked, %switch.lookup ], [ false, %11 ]
  ret i1 %.0
}